; ModuleID = 'source-C-CXX/44/1817.c'
source_filename = "source-C-CXX/44/1817.c"
target datalayout = "e-m:e-p270:32:32-p271:32:32-p272:64:64-i64:64-f80:128-n8:16:32:64-S128"
target triple = "x86_64-pc-linux-gnu"

@.str = private unnamed_addr constant [5 x i8] c"%s%s\00", align 1
@.str.1 = private unnamed_addr constant [3 x i8] c"%d\00", align 1

; Function Attrs: nofree nounwind sspstrong uwtable
define dso_local i32 @main() local_unnamed_addr #0 {
  %1 = alloca [100 x i8], align 16
  %2 = alloca [100 x i8], align 16
  %3 = getelementptr inbounds [100 x i8], [100 x i8]* %1, i64 0, i64 0
  call void @llvm.lifetime.start.p0i8(i64 100, i8* nonnull %3) #4
  %4 = getelementptr inbounds [100 x i8], [100 x i8]* %2, i64 0, i64 0
  call void @llvm.lifetime.start.p0i8(i64 100, i8* nonnull %4) #4
  %5 = call i32 (i8*, ...) @__isoc99_scanf(i8* getelementptr inbounds ([5 x i8], [5 x i8]* @.str, i64 0, i64 0), i8* nonnull %3, i8* nonnull %4)
  %6 = call i64 @strlen(i8* noundef nonnull %3) #5
  %7 = trunc i64 %6 to i32
  %8 = load i8, i8* %3, align 16
  %9 = load i8, i8* %4, align 16, !tbaa !5
  %10 = icmp ne i8 %9, 0
  %11 = icmp sgt i32 %7, 0
  %12 = select i1 %10, i1 %11, i1 false
  br i1 %12, label %13, label %38

13:                                               ; preds = %0, %33
  %14 = phi i8 [ %36, %33 ], [ %9, %0 ]
  %15 = phi i32 [ %34, %33 ], [ 0, %0 ]
  %16 = phi i8* [ %35, %33 ], [ %4, %0 ]
  %17 = phi i32 [ %18, %33 ], [ 0, %0 ]
  %18 = add nuw nsw i32 %17, 1
  %19 = icmp eq i8 %14, %8
  %20 = zext i1 %19 to i32
  %21 = select i1 %19, i32 %7, i32 0
  %22 = add i32 %15, %21
  br label %25

23:                                               ; preds = %25
  %24 = icmp eq i32 %30, %7
  br i1 %24, label %33, label %25, !llvm.loop !8

25:                                               ; preds = %13, %23
  %26 = phi i32 [ %15, %13 ], [ %28, %23 ]
  %27 = phi i32 [ 0, %13 ], [ %30, %23 ]
  %28 = add nsw i32 %26, %20
  %29 = icmp eq i32 %28, %7
  %30 = add nuw nsw i32 %27, 1
  br i1 %29, label %31, label %23

31:                                               ; preds = %25
  %32 = icmp eq i32 %17, 0
  br i1 %32, label %33, label %38

33:                                               ; preds = %23, %31
  %34 = phi i32 [ %7, %31 ], [ %22, %23 ]
  %35 = getelementptr inbounds i8, i8* %16, i64 1
  %36 = load i8, i8* %35, align 1, !tbaa !5
  %37 = icmp eq i8 %36, 0
  br i1 %37, label %38, label %13, !llvm.loop !10

38:                                               ; preds = %33, %31, %0
  %39 = phi i32 [ 0, %0 ], [ %17, %31 ], [ 0, %33 ]
  %40 = call i32 (i8*, ...) @printf(i8* nonnull dereferenceable(1) getelementptr inbounds ([3 x i8], [3 x i8]* @.str.1, i64 0, i64 0), i32 %39)
  call void @llvm.lifetime.end.p0i8(i64 100, i8* nonnull %4) #4
  call void @llvm.lifetime.end.p0i8(i64 100, i8* nonnull %3) #4
  ret i32 0
}

; Function Attrs: argmemonly mustprogress nofree nosync nounwind willreturn
declare void @llvm.lifetime.start.p0i8(i64 immarg, i8* nocapture) #1

; Function Attrs: nofree nounwind
declare noundef i32 @__isoc99_scanf(i8* nocapture noundef readonly, ...) local_unnamed_addr #2

; Function Attrs: argmemonly mustprogress nofree nounwind readonly willreturn
declare i64 @strlen(i8* nocapture) local_unnamed_addr #3

; Function Attrs: nofree nounwind
declare noundef i32 @printf(i8* nocapture noundef readonly, ...) local_unnamed_addr #2

; Function Attrs: argmemonly mustprogress nofree nosync nounwind willreturn
declare void @llvm.lifetime.end.p0i8(i64 immarg, i8* nocapture) #1


!llvm.module.flags = !{!0, !1, !2, !3}
!llvm.ident = !{!4}

!0 = !{i32 1, !"wchar_size", i32 4}
!1 = !{i32 7, !"PIC Level", i32 2}
!2 = !{i32 7, !"PIE Level", i32 2}
!3 = !{i32 7, !"uwtable", i32 1}
!4 = !{!"clang version 13.0.0"}
!5 = !{!6, !6, i64 0}
!6 = !{!"omnipotent char", !7, i64 0}
!7 = !{!"Simple C/C++ TBAA"}
!8 = distinct !{!8, !9}
!9 = !{!"llvm.loop.mustprogress"}
!10 = distinct !{!10, !9}
